target datalayout = "e-m:e-p270:32:32-p271:32:32-p272:64:64-i64:64-i128:128-f80:128-n8:16:32:64-S128"
target triple = "x86_64-pc-linux-gnu"

%struct.option = type { i32, i32, ptr, ptr, ptr, ptr, i32, ptr, i64, ptr, i64, ptr }

@use_relative_paths = internal global i32 0, align 4
@__const.repair.self = private unnamed_addr constant [2 x ptr] [ptr @.str.174, ptr null], align 16
@git_worktree_repair_usage = internal constant [2 x ptr] [ptr @.str.175, ptr null], align 16

; Function Attrs: nounwind uwtable
define internal i32 @repair(i32 noundef %0, ptr noundef %1, ptr noundef %2, ptr noundef %3) #0 {
  %5 = alloca i32, align 4
  %6 = alloca ptr, align 8
  %7 = alloca ptr, align 8
  %8 = alloca ptr, align 8
  %9 = alloca ptr, align 8
  %10 = alloca [2 x ptr], align 16
  %11 = alloca [2 x %struct.option], align 16
  %12 = alloca i32, align 4
  store i32 %0, ptr %5, align 4, !tbaa !4
  store ptr %1, ptr %6, align 8, !tbaa !8
  store ptr %2, ptr %7, align 8, !tbaa !11
  store ptr %3, ptr %8, align 8, !tbaa !13
  call void @llvm.lifetime.start.p0(i64 8, ptr %9) #11
  call void @llvm.lifetime.start.p0(i64 16, ptr %10) #11
  call void @llvm.memcpy.p0.p0.i64(ptr align 16 %10, ptr align 16 @__const.repair.self, i64 16, i1 false)
  call void @llvm.lifetime.start.p0(i64 176, ptr %11) #11
  call void @llvm.memcpy.p0.p0.i64(ptr align 16 %11, ptr align 16 @__const.repair.options, i64 176, i1 false)
  call void @llvm.lifetime.start.p0(i64 4, ptr %12) #11
  store i32 0, ptr %12, align 4, !tbaa !4
  %13 = load i32, ptr %5, align 4, !tbaa !4
  %14 = load ptr, ptr %6, align 8, !tbaa !8
  %15 = load ptr, ptr %7, align 8, !tbaa !11
  %16 = getelementptr inbounds [2 x %struct.option], ptr %11, i64 0, i64 0
  %17 = call i32 @parse_options(i32 noundef %13, ptr noundef %14, ptr noundef %15, ptr noundef %16, ptr noundef @git_worktree_repair_usage, i32 noundef 0)
  store i32 %17, ptr %5, align 4, !tbaa !4
  %18 = load i32, ptr %5, align 4, !tbaa !4
  %19 = icmp sgt i32 %18, 0
  br i1 %19, label %20, label %22

20:                                               ; preds = %4
  %21 = load ptr, ptr %6, align 8, !tbaa !8
  br label %24

22:                                               ; preds = %4
  %23 = getelementptr inbounds [2 x ptr], ptr %10, i64 0, i64 0
  br label %24

24:                                               ; preds = %22, %20
  %25 = phi ptr [ %21, %20 ], [ %23, %22 ]
  store ptr %25, ptr %9, align 8, !tbaa !8
  br label %26

26:                                               ; preds = %34, %24
  %27 = load ptr, ptr %9, align 8, !tbaa !8
  %28 = load ptr, ptr %27, align 8, !tbaa !11
  %29 = icmp ne ptr %28, null
  br i1 %29, label %30, label %37

30:                                               ; preds = %26
  %31 = load ptr, ptr %9, align 8, !tbaa !8
  %32 = load ptr, ptr %31, align 8, !tbaa !11
  %33 = load i32, ptr @use_relative_paths, align 4, !tbaa !4
  call void @repair_worktree_at_path(ptr noundef %32, ptr noundef @report_repair, ptr noundef %12, i32 noundef %33)
  br label %34

34:                                               ; preds = %30
  %35 = load ptr, ptr %9, align 8, !tbaa !8
  %36 = getelementptr inbounds nuw ptr, ptr %35, i32 1
  store ptr %36, ptr %9, align 8, !tbaa !8
  br label %26, !llvm.loop !72

37:                                               ; preds = %26
  %38 = load i32, ptr @use_relative_paths, align 4, !tbaa !4
  call void @repair_worktrees(ptr noundef @report_repair, ptr noundef %12, i32 noundef %38)
  %39 = load i32, ptr %12, align 4, !tbaa !4
  call void @llvm.lifetime.end.p0(i64 4, ptr %12) #11
  call void @llvm.lifetime.end.p0(i64 176, ptr %11) #11
  call void @llvm.lifetime.end.p0(i64 16, ptr %10) #11
  call void @llvm.lifetime.end.p0(i64 8, ptr %9) #11
  ret i32 %39
}