; Function Attrs: nounwind uwtable
define internal i32 @repair(i32 noundef %0, ptr noundef %1, ptr noundef %2, ptr readnone captures(none) %3) #0 {
  %5 = alloca [2 x %struct.option], align 16
  %6 = alloca i32, align 4
  call void @llvm.lifetime.start.p0(i64 176, ptr nonnull %5) #18
  call void @llvm.memcpy.p0.p0.i64(ptr noundef nonnull align 16 dereferenceable(176) %5, ptr noundef nonnull align 16 dereferenceable(176) @__const.repair.options, i64 176, i1 false)
  call void @llvm.lifetime.start.p0(i64 4, ptr nonnull %6) #18
  store i32 0, ptr %6, align 4, !tbaa !38
  %7 = call i32 @parse_options(i32 noundef %0, ptr noundef %1, ptr noundef %2, ptr noundef nonnull %5, ptr noundef nonnull @git_worktree_repair_usage, i32 noundef 0) #18
  %8 = icmp sgt i32 %7, 0
  %9 = select i1 %8, ptr %1, ptr @__const.repair.self
  %10 = load ptr, ptr %9, align 8, !tbaa !37
  %.not8 = icmp eq ptr %10, null
  br i1 %.not8, label %._crit_edge, label %.lr.ph

.lr.ph:                                           ; preds = %4, %.lr.ph
  %11 = phi ptr [ %14, %.lr.ph ], [ %10, %4 ]
  %.09 = phi ptr [ %13, %.lr.ph ], [ %9, %4 ]
  %12 = load i32, ptr @use_relative_paths, align 4, !tbaa !38
  call void @repair_worktree_at_path(ptr noundef nonnull %11, ptr noundef nonnull @report_repair, ptr noundef nonnull %6, i32 noundef %12) #18
  %13 = getelementptr inbounds nuw i8, ptr %.09, i64 8
  %14 = load ptr, ptr %13, align 8, !tbaa !37
  %.not = icmp eq ptr %14, null
  br i1 %.not, label %._crit_edge, label %.lr.ph, !llvm.loop !95

._crit_edge:                                      ; preds = %.lr.ph, %4
  %15 = load i32, ptr @use_relative_paths, align 4, !tbaa !38
  call void @repair_worktrees(ptr noundef nonnull @report_repair, ptr noundef nonnull %6, i32 noundef %15) #18
  %16 = load i32, ptr %6, align 4, !tbaa !38
  call void @llvm.lifetime.end.p0(i64 4, ptr nonnull %6) #18
  call void @llvm.lifetime.end.p0(i64 176, ptr nonnull %5) #18
  ret i32 %16
}